target datalayout = "e-m:e-p270:32:32-p271:32:32-p272:64:64-i64:64-i128:128-f80:128-n8:16:32:64-S128"
target triple = "x86_64-pc-linux-gnu"

%struct.ccan_list_node = type { ptr, ptr }
%union.pthread_mutex_t = type { %struct.__pthread_mutex_s }
%struct.__pthread_mutex_s = type { i32, i32, i32, i32, i32, i16, i16, %struct.__pthread_internal_list }
%struct.__pthread_internal_list = type { ptr, ptr }
%struct.ccan_list_head = type { %struct.ccan_list_node }
%struct.RBasic = type { i64, i64 }
%struct.rb_vm_struct = type { i64, %struct.anon.1, ptr, i64, %struct.ccan_list_head, i32, i8, i64, ptr, [5 x i64], i64, i64, i64, i64, i64, i64, i64, i64, i64, ptr, ptr, ptr, %struct.anon.5, ptr, i32, %struct.ccan_list_head, %union.pthread_mutex_t, i64, i64, i64, i64, i32, %struct.anon.6, ptr, ptr, ptr, ptr, ptr, ptr, ptr, ptr, i64, [1023 x ptr], %struct.anon.7 }
%struct.anon.1 = type { %struct.ccan_list_head, i32, i32, ptr, ptr, %struct.anon.2, %struct.anon.4 }
%struct.anon.2 = type { %union.pthread_mutex_t, ptr, i32, %union.pthread_cond_t, i8 }
%union.pthread_cond_t = type { %struct.__pthread_cond_s }
%struct.__pthread_cond_s = type { %union.__atomic_wide_counter, %union.__atomic_wide_counter, [2 x i32], [2 x i32], i32, i32, [2 x i32] }
%union.__atomic_wide_counter = type { i64 }
%struct.anon.4 = type { %union.pthread_mutex_t, ptr, i8, %union.pthread_cond_t, i32, i32, i32, i32, %struct.ccan_list_head, i32, %struct.ccan_list_head, %struct.ccan_list_head, %struct.ccan_list_head, i8, %union.pthread_cond_t, %union.pthread_cond_t, i8, i32, i32 }
%struct.anon.5 = type { [65 x i64] }
%struct.anon.6 = type { ptr, ptr }
%struct.anon.7 = type { i64, i64, i64, i64 }
%struct.RClass_and_rb_classext_t = type { %struct.RClass, %struct.rb_classext_struct }
%struct.RClass = type { %struct.RBasic, i64, ptr }
%struct.rb_classext_struct = type { ptr, ptr, ptr, ptr, ptr, i64, ptr, ptr, ptr, ptr, i64, i64, %union.anon.24, i64, i32, i8, i8, i64 }
%union.anon.24 = type { %struct.anon.25 }
%struct.anon.25 = type { ptr }
%struct.rb_method_entry_struct = type { i64, i64, ptr, i64, i64 }
%struct.anon.26 = type { i64 }

@ruby_current_vm_ptr = hidden global ptr null, align 8

; Function Attrs: inlinehint nounwind sspstrong willreturn memory(none) uwtable
define internal zeroext i1 @RB_IMMEDIATE_P(i64 noundef %0) #4 {
  %2 = alloca i64, align 8
  store i64 %0, ptr %2, align 8, !tbaa !31
  %3 = load i64, ptr %2, align 8, !tbaa !31
  %4 = and i64 %3, 7
  %5 = icmp ne i64 %4, 0
  ret i1 %5
}

; Function Attrs: inlinehint nounwind sspstrong willreturn memory(none) uwtable
define internal zeroext i1 @RB_FLONUM_P(i64 noundef %0) #4 {
  %2 = alloca i64, align 8
  store i64 %0, ptr %2, align 8, !tbaa !31
  %3 = load i64, ptr %2, align 8, !tbaa !31
  %4 = and i64 %3, 3
  %5 = icmp eq i64 %4, 2
  ret i1 %5
}

; Function Attrs: inlinehint nounwind sspstrong willreturn memory(read) uwtable
define internal zeroext i1 @RB_DYNAMIC_SYM_P(i64 noundef %0) #1 {
  %2 = alloca i1, align 1
  %3 = alloca i64, align 8
  store i64 %0, ptr %3, align 8, !tbaa !31
  %4 = load i64, ptr %3, align 8, !tbaa !31
  %5 = call zeroext i1 @RB_SPECIAL_CONST_P(i64 noundef %4) #36
  br i1 %5, label %6, label %7

6:                                                ; preds = %1
  store i1 false, ptr %2, align 1
  br label %11

7:                                                ; preds = %1
  %8 = load i64, ptr %3, align 8, !tbaa !31
  %9 = call i32 @RB_BUILTIN_TYPE(i64 noundef %8) #35
  %10 = icmp eq i32 %9, 20
  store i1 %10, ptr %2, align 1
  br label %11

11:                                               ; preds = %7, %6
  %12 = load i1, ptr %2, align 1
  ret i1 %12
}

; Function Attrs: inlinehint nounwind sspstrong willreturn memory(none) uwtable
define internal zeroext i1 @RB_STATIC_SYM_P(i64 noundef %0) #4 {
  %2 = alloca i64, align 8
  %3 = alloca i64, align 8
  store i64 %0, ptr %2, align 8, !tbaa !31
  call void @llvm.lifetime.start.p0(i64 8, ptr %3) #21
  store i64 255, ptr %3, align 8, !tbaa !31
  %4 = load i64, ptr %2, align 8, !tbaa !31
  %5 = and i64 %4, 255
  %6 = icmp eq i64 %5, 12
  call void @llvm.lifetime.end.p0(i64 8, ptr %3) #21
  ret i1 %6
}

; Function Attrs: inlinehint nounwind sspstrong willreturn memory(read) uwtable
define internal i32 @rb_type(i64 noundef %0) #1 {
  %2 = alloca i32, align 4
  %3 = alloca i64, align 8
  store i64 %0, ptr %3, align 8, !tbaa !31
  %4 = load i64, ptr %3, align 8, !tbaa !31
  %5 = call zeroext i1 @RB_SPECIAL_CONST_P(i64 noundef %4) #36
  br i1 %5, label %9, label %6

6:                                                ; preds = %1
  %7 = load i64, ptr %3, align 8, !tbaa !31
  %8 = call i32 @RB_BUILTIN_TYPE(i64 noundef %7) #35
  store i32 %8, ptr %2, align 4
  br label %36

9:                                                ; preds = %1
  %10 = load i64, ptr %3, align 8, !tbaa !31
  %11 = icmp eq i64 %10, 0
  br i1 %11, label %12, label %13

12:                                               ; preds = %9
  store i32 19, ptr %2, align 4
  br label %36

13:                                               ; preds = %9
  %14 = load i64, ptr %3, align 8, !tbaa !31
  %15 = icmp eq i64 %14, 4
  br i1 %15, label %16, label %17

16:                                               ; preds = %13
  store i32 17, ptr %2, align 4
  br label %36

17:                                               ; preds = %13
  %18 = load i64, ptr %3, align 8, !tbaa !31
  %19 = icmp eq i64 %18, 20
  br i1 %19, label %20, label %21

20:                                               ; preds = %17
  store i32 18, ptr %2, align 4
  br label %36

21:                                               ; preds = %17
  %22 = load i64, ptr %3, align 8, !tbaa !31
  %23 = icmp eq i64 %22, 36
  br i1 %23, label %24, label %25

24:                                               ; preds = %21
  store i32 22, ptr %2, align 4
  br label %36

25:                                               ; preds = %21
  %26 = load i64, ptr %3, align 8, !tbaa !31
  %27 = call zeroext i1 @RB_FIXNUM_P(i64 noundef %26) #36
  br i1 %27, label %28, label %29

28:                                               ; preds = %25
  store i32 21, ptr %2, align 4
  br label %36

29:                                               ; preds = %25
  %30 = load i64, ptr %3, align 8, !tbaa !31
  %31 = call zeroext i1 @RB_STATIC_SYM_P(i64 noundef %30) #36
  br i1 %31, label %32, label %33

32:                                               ; preds = %29
  store i32 20, ptr %2, align 4
  br label %36

33:                                               ; preds = %29
  %34 = load i64, ptr %3, align 8, !tbaa !31
  %35 = call zeroext i1 @RB_FLONUM_P(i64 noundef %34) #36
  call void @llvm.assume(i1 %35)
  store i32 4, ptr %2, align 4
  br label %36

36:                                               ; preds = %33, %32, %28, %24, %20, %16, %12, %6
  %37 = load i32, ptr %2, align 4
  ret i32 %37
}

; Function Attrs: inlinehint nounwind sspstrong willreturn memory(read) uwtable
define internal i32 @RB_BUILTIN_TYPE(i64 noundef %0) #1 {
  %2 = alloca i64, align 8
  %3 = alloca i64, align 8
  store i64 %0, ptr %2, align 8, !tbaa !31
  call void @llvm.lifetime.start.p0(i64 8, ptr %3) #21
  %4 = load i64, ptr %2, align 8, !tbaa !31
  %5 = inttoptr i64 %4 to ptr
  %6 = getelementptr inbounds nuw %struct.RBasic, ptr %5, i32 0, i32 0
  %7 = load i64, ptr %6, align 8, !tbaa !299
  %8 = and i64 %7, 31
  store i64 %8, ptr %3, align 8, !tbaa !31
  %9 = load i64, ptr %3, align 8, !tbaa !31
  %10 = trunc i64 %9 to i32
  call void @llvm.lifetime.end.p0(i64 8, ptr %3) #21
  ret i32 %10
}

; Function Attrs: inlinehint nounwind sspstrong willreturn memory(none) uwtable
define internal zeroext i1 @RB_SPECIAL_CONST_P(i64 noundef %0) #4 {
  %2 = alloca i64, align 8
  store i64 %0, ptr %2, align 8, !tbaa !31
  %3 = load i64, ptr %2, align 8, !tbaa !31
  %4 = icmp eq i64 %3, 0
  br i1 %4, label %8, label %5

5:                                                ; preds = %1
  %6 = load i64, ptr %2, align 8, !tbaa !31
  %7 = call zeroext i1 @RB_IMMEDIATE_P(i64 noundef %6) #36
  br label %8

8:                                                ; preds = %5, %1
  %9 = phi i1 [ true, %1 ], [ %7, %5 ]
  ret i1 %9
}

; Function Attrs: inlinehint nounwind sspstrong willreturn memory(read) uwtable
define internal zeroext i1 @RB_FLOAT_TYPE_P(i64 noundef %0) #1 {
  %2 = alloca i1, align 1
  %3 = alloca i64, align 8
  store i64 %0, ptr %3, align 8, !tbaa !31
  %4 = load i64, ptr %3, align 8, !tbaa !31
  %5 = call zeroext i1 @RB_FLONUM_P(i64 noundef %4) #36
  br i1 %5, label %6, label %7

6:                                                ; preds = %1
  store i1 true, ptr %2, align 1
  br label %15

7:                                                ; preds = %1
  %8 = load i64, ptr %3, align 8, !tbaa !31
  %9 = call zeroext i1 @RB_SPECIAL_CONST_P(i64 noundef %8) #36
  br i1 %9, label %10, label %11

10:                                               ; preds = %7
  store i1 false, ptr %2, align 1
  br label %15

11:                                               ; preds = %7
  %12 = load i64, ptr %3, align 8, !tbaa !31
  %13 = call i32 @RB_BUILTIN_TYPE(i64 noundef %12) #35
  %14 = icmp eq i32 %13, 4
  store i1 %14, ptr %2, align 1
  br label %15

15:                                               ; preds = %11, %10, %6
  %16 = load i1, ptr %2, align 1
  ret i1 %16
}

; Function Attrs: inlinehint nounwind sspstrong willreturn memory(read) uwtable
define internal zeroext i1 @RB_SYMBOL_P(i64 noundef %0) #1 {
  %2 = alloca i64, align 8
  store i64 %0, ptr %2, align 8, !tbaa !31
  %3 = load i64, ptr %2, align 8, !tbaa !31
  %4 = call zeroext i1 @RB_STATIC_SYM_P(i64 noundef %3) #36
  br i1 %4, label %8, label %5

5:                                                ; preds = %1
  %6 = load i64, ptr %2, align 8, !tbaa !31
  %7 = call zeroext i1 @RB_DYNAMIC_SYM_P(i64 noundef %6) #35
  br label %8

8:                                                ; preds = %5, %1
  %9 = phi i1 [ true, %1 ], [ %7, %5 ]
  ret i1 %9
}

; Function Attrs: inlinehint nounwind sspstrong willreturn memory(none) uwtable
define internal zeroext i1 @RB_FIXNUM_P(i64 noundef %0) #4 {
  %2 = alloca i64, align 8
  store i64 %0, ptr %2, align 8, !tbaa !31
  %3 = load i64, ptr %2, align 8, !tbaa !31
  %4 = and i64 %3, 1
  %5 = icmp ne i64 %4, 0
  ret i1 %5
}

; Function Attrs: inlinehint nounwind sspstrong willreturn memory(read) uwtable
define internal i64 @RB_FL_TEST_RAW(i64 noundef %0, i64 noundef %1) #1 {
  %3 = alloca i64, align 8
  %4 = alloca i64, align 8
  store i64 %0, ptr %3, align 8, !tbaa !31
  store i64 %1, ptr %4, align 8, !tbaa !31
  %5 = load i64, ptr %3, align 8, !tbaa !31
  %6 = inttoptr i64 %5 to ptr
  %7 = getelementptr inbounds nuw %struct.RBasic, ptr %6, i32 0, i32 0
  %8 = load i64, ptr %7, align 8, !tbaa !299
  %9 = load i64, ptr %4, align 8, !tbaa !31
  %10 = and i64 %8, %9
  ret i64 %10
}

; Function Attrs: inlinehint nounwind sspstrong willreturn memory(read) uwtable
define internal zeroext i1 @RB_TYPE_P(i64 noundef %0, i32 noundef %1) #1 {
  %3 = alloca i1, align 1
  %4 = alloca i64, align 8
  %5 = alloca i32, align 4
  store i64 %0, ptr %4, align 8, !tbaa !31
  store i32 %1, ptr %5, align 4, !tbaa !24
  %6 = load i32, ptr %5, align 4, !tbaa !24
  %7 = call i1 @llvm.is.constant.i32(i32 %6)
  br i1 %7, label %8, label %12

8:                                                ; preds = %2
  %9 = load i64, ptr %4, align 8, !tbaa !31
  %10 = load i32, ptr %5, align 4, !tbaa !24
  %11 = call zeroext i1 @rbimpl_RB_TYPE_P_fastpath(i64 noundef %9, i32 noundef %10) #35
  store i1 %11, ptr %3, align 1
  br label %17

12:                                               ; preds = %2
  %13 = load i32, ptr %5, align 4, !tbaa !24
  %14 = load i64, ptr %4, align 8, !tbaa !31
  %15 = call i32 @rb_type(i64 noundef %14) #35
  %16 = icmp eq i32 %13, %15
  store i1 %16, ptr %3, align 1
  br label %17

17:                                               ; preds = %12, %8
  %18 = load i1, ptr %3, align 1
  ret i1 %18
}

; Function Attrs: alwaysinline nounwind sspstrong willreturn memory(read) uwtable
define internal zeroext i1 @rbimpl_RB_TYPE_P_fastpath(i64 noundef %0, i32 noundef %1) #13 {
  %3 = alloca i1, align 1
  %4 = alloca i64, align 8
  %5 = alloca i32, align 4
  store i64 %0, ptr %4, align 8, !tbaa !31
  store i32 %1, ptr %5, align 4, !tbaa !24
  %6 = load i32, ptr %5, align 4, !tbaa !24
  %7 = icmp eq i32 %6, 18
  br i1 %7, label %8, label %11

8:                                                ; preds = %2
  %9 = load i64, ptr %4, align 8, !tbaa !31
  %10 = icmp eq i64 %9, 20
  store i1 %10, ptr %3, align 1
  br label %58

11:                                               ; preds = %2
  %12 = load i32, ptr %5, align 4, !tbaa !24
  %13 = icmp eq i32 %12, 19
  br i1 %13, label %14, label %17

14:                                               ; preds = %11
  %15 = load i64, ptr %4, align 8, !tbaa !31
  %16 = icmp eq i64 %15, 0
  store i1 %16, ptr %3, align 1
  br label %58

17:                                               ; preds = %11
  %18 = load i32, ptr %5, align 4, !tbaa !24
  %19 = icmp eq i32 %18, 17
  br i1 %19, label %20, label %23

20:                                               ; preds = %17
  %21 = load i64, ptr %4, align 8, !tbaa !31
  %22 = icmp eq i64 %21, 4
  store i1 %22, ptr %3, align 1
  br label %58

23:                                               ; preds = %17
  %24 = load i32, ptr %5, align 4, !tbaa !24
  %25 = icmp eq i32 %24, 22
  br i1 %25, label %26, label %29

26:                                               ; preds = %23
  %27 = load i64, ptr %4, align 8, !tbaa !31
  %28 = icmp eq i64 %27, 36
  store i1 %28, ptr %3, align 1
  br label %58

29:                                               ; preds = %23
  %30 = load i32, ptr %5, align 4, !tbaa !24
  %31 = icmp eq i32 %30, 21
  br i1 %31, label %32, label %35

32:                                               ; preds = %29
  %33 = load i64, ptr %4, align 8, !tbaa !31
  %34 = call zeroext i1 @RB_FIXNUM_P(i64 noundef %33) #36
  store i1 %34, ptr %3, align 1
  br label %58

35:                                               ; preds = %29
  %36 = load i32, ptr %5, align 4, !tbaa !24
  %37 = icmp eq i32 %36, 20
  br i1 %37, label %38, label %41

38:                                               ; preds = %35
  %39 = load i64, ptr %4, align 8, !tbaa !31
  %40 = call zeroext i1 @RB_SYMBOL_P(i64 noundef %39) #35
  store i1 %40, ptr %3, align 1
  br label %58

41:                                               ; preds = %35
  %42 = load i32, ptr %5, align 4, !tbaa !24
  %43 = icmp eq i32 %42, 4
  br i1 %43, label %44, label %47

44:                                               ; preds = %41
  %45 = load i64, ptr %4, align 8, !tbaa !31
  %46 = call zeroext i1 @RB_FLOAT_TYPE_P(i64 noundef %45) #35
  store i1 %46, ptr %3, align 1
  br label %58

47:                                               ; preds = %41
  %48 = load i64, ptr %4, align 8, !tbaa !31
  %49 = call zeroext i1 @RB_SPECIAL_CONST_P(i64 noundef %48) #36
  br i1 %49, label %50, label %51

50:                                               ; preds = %47
  store i1 false, ptr %3, align 1
  br label %58

51:                                               ; preds = %47
  %52 = load i32, ptr %5, align 4, !tbaa !24
  %53 = load i64, ptr %4, align 8, !tbaa !31
  %54 = call i32 @RB_BUILTIN_TYPE(i64 noundef %53) #35
  %55 = icmp eq i32 %52, %54
  br i1 %55, label %56, label %57

56:                                               ; preds = %51
  store i1 true, ptr %3, align 1
  br label %58

57:                                               ; preds = %51
  store i1 false, ptr %3, align 1
  br label %58

58:                                               ; preds = %57, %56, %50, %44, %38, %32, %26, %20, %14, %8
  %59 = load i1, ptr %3, align 1
  ret i1 %59
}

; Function Attrs: nounwind sspstrong uwtable
define dso_local i64 @rb_funcallv(i64 noundef %0, i64 noundef %1, i32 noundef %2, ptr noundef %3) #0 {
  %5 = alloca i64, align 8
  %6 = alloca i64, align 8
  %7 = alloca i32, align 4
  %8 = alloca ptr, align 8
  store i64 %0, ptr %5, align 8, !tbaa !31
  store i64 %1, ptr %6, align 8, !tbaa !31
  store i32 %2, ptr %7, align 4, !tbaa !24
  store ptr %3, ptr %8, align 8, !tbaa !7
  %9 = load i64, ptr %5, align 8, !tbaa !31
  %10 = load i64, ptr %6, align 8, !tbaa !31
  %11 = load i32, ptr %7, align 4, !tbaa !24
  %12 = load ptr, ptr %8, align 8, !tbaa !7
  %13 = call i64 @rb_funcallv_scope(i64 noundef %9, i64 noundef %10, i32 noundef %11, ptr noundef %12, i32 noundef 1)
  ret i64 %13
}

; Function Attrs: inlinehint nounwind sspstrong uwtable
define internal zeroext i1 @RCLASS_SINGLETON_P(i64 noundef %0) #2 {
  %2 = alloca i64, align 8
  store i64 %0, ptr %2, align 8, !tbaa !31
  br i1 true, label %3, label %6

3:                                                ; preds = %1
  %4 = load i64, ptr %2, align 8, !tbaa !31
  %5 = call zeroext i1 @rbimpl_RB_TYPE_P_fastpath(i64 noundef %4, i32 noundef 2) #35
  br i1 %5, label %9, label %13

6:                                                ; preds = %1
  %7 = load i64, ptr %2, align 8, !tbaa !31
  %8 = call zeroext i1 @RB_TYPE_P(i64 noundef %7, i32 noundef 2) #35
  br i1 %8, label %9, label %13

9:                                                ; preds = %6, %3
  %10 = load i64, ptr %2, align 8, !tbaa !31
  %11 = call i64 @RB_FL_TEST_RAW(i64 noundef %10, i64 noundef 8192) #35
  %12 = icmp ne i64 %11, 0
  br label %13

13:                                               ; preds = %9, %6, %3
  %14 = phi i1 [ false, %6 ], [ false, %3 ], [ %12, %9 ]
  ret i1 %14
}

; Function Attrs: inlinehint nounwind sspstrong uwtable
define internal ptr @rb_current_vm() #2 {
  %1 = load ptr, ptr @ruby_current_vm_ptr, align 8, !tbaa !274
  ret ptr %1
}

; Function Attrs: nounwind sspstrong uwtable
define internal void @method_added(i64 noundef %0, i64 noundef %1) #0 {
  %3 = alloca i64, align 8
  %4 = alloca i64, align 8
  %5 = alloca i64, align 8
  %6 = alloca i64, align 8
  %7 = alloca i64, align 8
  %8 = alloca i64, align 8
  store i64 %0, ptr %3, align 8, !tbaa !31
  store i64 %1, ptr %4, align 8, !tbaa !31
  %9 = call ptr @rb_current_vm()
  %10 = getelementptr inbounds nuw %struct.rb_vm_struct, ptr %9, i32 0, i32 6
  %11 = load i8, ptr %10, align 4
  %12 = and i8 %11, 1
  %13 = zext i8 %12 to i32
  %14 = icmp ne i32 %13, 0
  br i1 %14, label %15, label %51

15:                                               ; preds = %2
  br label %16

16:                                               ; preds = %15
  call void @llvm.lifetime.start.p0(i64 8, ptr %5) #21
  %17 = load i64, ptr %4, align 8, !tbaa !31
  %18 = call i1 @llvm.is.constant.i64(i64 %17)
  br i1 %18, label %19, label %30

19:                                               ; preds = %16
  %20 = load i64, ptr %4, align 8, !tbaa !31
  %21 = and i64 %20, 1
  %22 = icmp ne i64 %21, 0
  br i1 %22, label %26, label %23

23:                                               ; preds = %19
  %24 = load i64, ptr %4, align 8, !tbaa !31
  %25 = icmp ugt i64 %24, 170
  br i1 %25, label %30, label %26

26:                                               ; preds = %23, %19
  %27 = load i64, ptr %4, align 8, !tbaa !31
  %28 = shl i64 %27, 8
  %29 = or i64 %28, 12
  br label %33

30:                                               ; preds = %23, %16
  %31 = load i64, ptr %4, align 8, !tbaa !31
  %32 = call i64 @rb_id2sym(i64 noundef %31)
  br label %33

33:                                               ; preds = %30, %26
  %34 = phi i64 [ %29, %26 ], [ %32, %30 ]
  store i64 %34, ptr %6, align 8, !tbaa !31
  %35 = load i64, ptr %6, align 8, !tbaa !31
  store i64 %35, ptr %5, align 8, !tbaa !31
  call void @llvm.lifetime.start.p0(i64 8, ptr %7) #21
  %36 = load i64, ptr %3, align 8, !tbaa !31
  store i64 %36, ptr %7, align 8, !tbaa !31
  call void @llvm.lifetime.start.p0(i64 8, ptr %8) #21
  store i64 2913, ptr %8, align 8, !tbaa !31
  %37 = load i64, ptr %3, align 8, !tbaa !31
  %38 = call zeroext i1 @RCLASS_SINGLETON_P(i64 noundef %37)
  br i1 %38, label %39, label %46

39:                                               ; preds = %33
  %40 = load i64, ptr %3, align 8, !tbaa !31
  %41 = inttoptr i64 %40 to ptr
  %42 = getelementptr inbounds nuw %struct.RClass_and_rb_classext_t, ptr %41, i32 0, i32 1
  %43 = getelementptr inbounds nuw %struct.rb_classext_struct, ptr %42, i32 0, i32 12
  %44 = getelementptr inbounds nuw %struct.anon.26, ptr %43, i32 0, i32 0
  %45 = load i64, ptr %44, align 8, !tbaa !58
  store i64 %45, ptr %7, align 8, !tbaa !31
  store i64 2929, ptr %8, align 8, !tbaa !31
  br label %46

46:                                               ; preds = %39, %33
  %47 = load i64, ptr %7, align 8, !tbaa !31
  %48 = load i64, ptr %8, align 8, !tbaa !31
  %49 = call i64 @rb_funcallv(i64 noundef %47, i64 noundef %48, i32 noundef 1, ptr noundef %5)
  call void @llvm.lifetime.end.p0(i64 8, ptr %8) #21
  call void @llvm.lifetime.end.p0(i64 8, ptr %7) #21
  call void @llvm.lifetime.end.p0(i64 8, ptr %5) #21
  br label %50

50:                                               ; preds = %46
  br label %51

51:                                               ; preds = %50, %2
  ret void
}

; Function Attrs: inlinehint nounwind sspstrong uwtable
define internal void @METHOD_ENTRY_FLAGS_SET(ptr noundef %0, i32 noundef %1, i32 noundef %2) #2 {
  %4 = alloca ptr, align 8
  %5 = alloca i32, align 4
  %6 = alloca i32, align 4
  store ptr %0, ptr %4, align 8, !tbaa !176
  store i32 %1, ptr %5, align 4, !tbaa !24
  store i32 %2, ptr %6, align 4, !tbaa !24
  %7 = load ptr, ptr %4, align 8, !tbaa !176
  %8 = getelementptr inbounds nuw %struct.rb_method_entry_struct, ptr %7, i32 0, i32 0
  %9 = load i64, ptr %8, align 8, !tbaa !196
  %10 = and i64 %9, -458753
  %11 = load i32, ptr %5, align 4, !tbaa !24
  %12 = shl i32 %11, 16
  %13 = load i32, ptr %6, align 4, !tbaa !24
  %14 = shl i32 %13, 18
  %15 = or i32 %12, %14
  %16 = zext i32 %15 to i64
  %17 = or i64 %10, %16
  %18 = load ptr, ptr %4, align 8, !tbaa !176
  %19 = getelementptr inbounds nuw %struct.rb_method_entry_struct, ptr %18, i32 0, i32 0
  store i64 %17, ptr %19, align 8, !tbaa !196
  ret void
}

; Function Attrs: nounwind sspstrong uwtable
define internal ptr @method_entry_set(i64 noundef %0, i64 noundef %1, ptr noundef %2, i32 noundef %3, i64 noundef %4) #0 {
  %6 = alloca i64, align 8
  %7 = alloca i64, align 8
  %8 = alloca ptr, align 8
  %9 = alloca i32, align 4
  %10 = alloca i64, align 8
  %11 = alloca ptr, align 8
  store i64 %0, ptr %6, align 8, !tbaa !31
  store i64 %1, ptr %7, align 8, !tbaa !31
  store ptr %2, ptr %8, align 8, !tbaa !176
  store i32 %3, ptr %9, align 4, !tbaa !24
  store i64 %4, ptr %10, align 8, !tbaa !31
  call void @llvm.lifetime.start.p0(i64 8, ptr %11) #21
  %12 = load i64, ptr %6, align 8, !tbaa !31
  %13 = load i64, ptr %7, align 8, !tbaa !31
  %14 = load i64, ptr %10, align 8, !tbaa !31
  %15 = load i32, ptr %9, align 4, !tbaa !24
  %16 = load ptr, ptr %8, align 8, !tbaa !176
  %17 = getelementptr inbounds nuw %struct.rb_method_entry_struct, ptr %16, i32 0, i32 2
  %18 = load ptr, ptr %17, align 8, !tbaa !309
  %19 = load i64, ptr %18, align 8
  %20 = and i64 %19, 15
  %21 = trunc i64 %20 to i32
  %22 = load ptr, ptr %8, align 8, !tbaa !176
  %23 = getelementptr inbounds nuw %struct.rb_method_entry_struct, ptr %22, i32 0, i32 2
  %24 = load ptr, ptr %23, align 8, !tbaa !309
  %25 = call ptr @rb_method_entry_make(i64 noundef %12, i64 noundef %13, i64 noundef %14, i32 noundef %15, i32 noundef %21, ptr noundef %24, i64 noundef 0, ptr noundef null)
  store ptr %25, ptr %11, align 8, !tbaa !176
  %26 = load ptr, ptr %11, align 8, !tbaa !176
  %27 = load ptr, ptr %8, align 8, !tbaa !176
  %28 = icmp eq ptr %26, %27
  br i1 %28, label %29, label %38

29:                                               ; preds = %5
  %30 = load ptr, ptr %8, align 8, !tbaa !176
  %31 = getelementptr inbounds nuw %struct.rb_method_entry_struct, ptr %30, i32 0, i32 2
  %32 = load ptr, ptr %31, align 8, !tbaa !309
  %33 = load i64, ptr %32, align 8
  %34 = and i64 %33, -33
  %35 = or i64 %34, 32
  store i64 %35, ptr %32, align 8
  %36 = load ptr, ptr %11, align 8, !tbaa !176
  %37 = load i32, ptr %9, align 4, !tbaa !24
  call void @METHOD_ENTRY_FLAGS_SET(ptr noundef %36, i32 noundef %37, i32 noundef 0)
  br label %38

38:                                               ; preds = %29, %5
  %39 = load i64, ptr %6, align 8, !tbaa !31
  %40 = load i64, ptr %7, align 8, !tbaa !31
  call void @method_added(i64 noundef %39, i64 noundef %40)
  %41 = load ptr, ptr %11, align 8, !tbaa !176
  call void @llvm.lifetime.end.p0(i64 8, ptr %11) #21
  ret ptr %41
}