; Function Attrs: nounwind sspstrong uwtable
define internal fastcc ptr @method_entry_set(i64 noundef %0, i64 noundef %1, ptr noundef readonly captures(address) %2, i32 noundef %3, i64 noundef %4) unnamed_addr #2 {
  %6 = alloca i64, align 8
  %7 = getelementptr inbounds nuw i8, ptr %2, i64 16
  %8 = load ptr, ptr %7, align 8, !tbaa !350
  %9 = load i64, ptr %8, align 8
  %10 = trunc i64 %9 to i32
  %11 = and i32 %10, 15
  %12 = tail call fastcc ptr @rb_method_entry_make(i64 noundef %0, i64 noundef %1, i64 noundef %4, i32 noundef %3, i32 noundef %11, ptr noundef nonnull %8, i64 noundef 0, ptr noundef null)
  %13 = icmp eq ptr %12, %2
  br i1 %13, label %14, label %23

14:                                               ; preds = %5
  %15 = load ptr, ptr %7, align 8, !tbaa !350
  %16 = load i64, ptr %15, align 8
  %17 = or i64 %16, 32
  store i64 %17, ptr %15, align 8
  %18 = load i64, ptr %12, align 8, !tbaa !200
  %19 = and i64 %18, -458753
  %20 = shl i32 %3, 16
  %21 = zext i32 %20 to i64
  %22 = or i64 %19, %21
  store i64 %22, ptr %12, align 8, !tbaa !200
  br label %23

23:                                               ; preds = %14, %5
  %24 = load ptr, ptr @ruby_current_vm_ptr, align 8, !tbaa !230
  %25 = getelementptr inbounds nuw i8, ptr %24, i64 508
  %26 = load i8, ptr %25, align 4
  %27 = and i8 %26, 1
  %.not.i = icmp eq i8 %27, 0
  br i1 %.not.i, label %method_added.exit, label %28

28:                                               ; preds = %23
  call void @llvm.lifetime.start.p0(i64 8, ptr nonnull %6) #21
  %29 = tail call i64 @rb_id2sym(i64 noundef %1) #21
  store i64 %29, ptr %6, align 8, !tbaa !7
  %30 = icmp eq i64 %0, 0
  %31 = and i64 %0, 7
  %32 = icmp ne i64 %31, 0
  %33 = or i1 %30, %32
  br i1 %33, label %.split13.i, label %rbimpl_RB_TYPE_P_fastpath.exit.i.i

rbimpl_RB_TYPE_P_fastpath.exit.i.i:               ; preds = %28
  %34 = inttoptr i64 %0 to ptr
  %35 = load i64, ptr %34, align 8, !tbaa !97
  %36 = and i64 %35, 8223
  %or.cond15.i = icmp eq i64 %36, 8194
  br i1 %or.cond15.i, label %.split.i, label %.split13.i

.split13.i:                                       ; preds = %rbimpl_RB_TYPE_P_fastpath.exit.i.i, %28
  %37 = call fastcc i64 @rb_funcallv_scope(i64 noundef %0, i64 noundef 2913, i32 noundef 1, ptr noundef nonnull %6, i32 noundef 1)
  br label %41

.split.i:                                         ; preds = %rbimpl_RB_TYPE_P_fastpath.exit.i.i
  %38 = getelementptr inbounds nuw i8, ptr %34, i64 128
  %39 = load i64, ptr %38, align 8, !tbaa !26
  %40 = call fastcc i64 @rb_funcallv_scope(i64 noundef %39, i64 noundef 2929, i32 noundef 1, ptr noundef nonnull %6, i32 noundef 1)
  br label %41

41:                                               ; preds = %.split.i, %.split13.i
  call void @llvm.lifetime.end.p0(i64 8, ptr nonnull %6) #21
  br label %method_added.exit

method_added.exit:                                ; preds = %23, %41
  ret ptr %12
}